; ModuleID = '49/200.c'
source_filename = "49/200.c"
target datalayout = "e-m:e-p270:32:32-p271:32:32-p272:64:64-i64:64-f80:128-n8:16:32:64-S128"
target triple = "x86_64-pc-linux-gnu"

@.str = private unnamed_addr constant [3 x i8] c"%c\00", align 1
@.str.1 = private unnamed_addr constant [4 x i8] c"%s\0A\00", align 1

; Function Attrs: noinline nounwind uwtable
define dso_local i32 @main() #0 {
  %1 = alloca i32, align 4
  %2 = alloca [550 x i8], align 16
  %3 = alloca i32, align 4
  %4 = alloca i32, align 4
  %5 = alloca i32, align 4
  %6 = alloca i32, align 4
  %7 = alloca i8*, align 8
  %8 = alloca i8*, align 8
  store i32 0, i32* %1, align 4
  %9 = bitcast [550 x i8]* %2 to i8*
  call void @llvm.memset.p0i8.i64(i8* align 16 %9, i8 0, i64 550, i1 false)
  store i32 0, i32* %3, align 4
  br label %10

10:                                               ; preds = %31, %0
  %11 = load i32, i32* %3, align 4
  %12 = icmp slt i32 %11, 550
  br i1 %12, label %13, label %34

13:                                               ; preds = %10
  %14 = load i32, i32* %3, align 4
  %15 = sext i32 %14 to i64
  %16 = getelementptr inbounds [550 x i8], [550 x i8]* %2, i64 0, i64 %15
  %17 = call i32 (i8*, ...) @__isoc99_scanf(i8* getelementptr inbounds ([3 x i8], [3 x i8]* @.str, i64 0, i64 0), i8* %16)
  %18 = load i32, i32* %3, align 4
  %19 = sext i32 %18 to i64
  %20 = getelementptr inbounds [550 x i8], [550 x i8]* %2, i64 0, i64 %19
  %21 = load i8, i8* %20, align 1
  %22 = sext i8 %21 to i32
  %23 = icmp eq i32 %22, 10
  br i1 %23, label %24, label %30

24:                                               ; preds = %13
  %25 = load i32, i32* %3, align 4
  %26 = sext i32 %25 to i64
  %27 = getelementptr inbounds [550 x i8], [550 x i8]* %2, i64 0, i64 %26
  store i8 0, i8* %27, align 1
  %28 = load i32, i32* %3, align 4
  %29 = sub nsw i32 %28, 1
  store i32 %29, i32* %4, align 4
  br label %34

30:                                               ; preds = %13
  br label %31

31:                                               ; preds = %30
  %32 = load i32, i32* %3, align 4
  %33 = add nsw i32 %32, 1
  store i32 %33, i32* %3, align 4
  br label %10

34:                                               ; preds = %24, %10
  store i32 2, i32* %3, align 4
  br label %35

35:                                               ; preds = %125, %34
  %36 = load i32, i32* %3, align 4
  %37 = load i32, i32* %4, align 4
  %38 = add nsw i32 %37, 1
  %39 = icmp sle i32 %36, %38
  br i1 %39, label %40, label %128

40:                                               ; preds = %35
  %41 = load i32, i32* %3, align 4
  %42 = add nsw i32 %41, 1
  %43 = sext i32 %42 to i64
  %44 = mul i64 1, %43
  %45 = call noalias i8* @malloc(i64 %44) #5
  store i8* %45, i8** %7, align 8
  %46 = load i32, i32* %3, align 4
  %47 = add nsw i32 %46, 1
  %48 = sext i32 %47 to i64
  %49 = mul i64 1, %48
  %50 = call noalias i8* @malloc(i64 %49) #5
  store i8* %50, i8** %8, align 8
  store i32 0, i32* %5, align 4
  br label %51

51:                                               ; preds = %119, %40
  %52 = load i32, i32* %5, align 4
  %53 = load i32, i32* %4, align 4
  %54 = add nsw i32 %53, 1
  %55 = load i32, i32* %3, align 4
  %56 = sub nsw i32 %54, %55
  %57 = icmp sle i32 %52, %56
  br i1 %57, label %58, label %122

58:                                               ; preds = %51
  %59 = load i32, i32* %5, align 4
  store i32 %59, i32* %6, align 4
  br label %60

60:                                               ; preds = %99, %58
  %61 = load i32, i32* %6, align 4
  %62 = load i32, i32* %5, align 4
  %63 = load i32, i32* %3, align 4
  %64 = add nsw i32 %62, %63
  %65 = sub nsw i32 %64, 1
  %66 = icmp sle i32 %61, %65
  br i1 %66, label %67, label %102

67:                                               ; preds = %60
  %68 = load i32, i32* %6, align 4
  %69 = sext i32 %68 to i64
  %70 = getelementptr inbounds [550 x i8], [550 x i8]* %2, i64 0, i64 %69
  %71 = load i8, i8* %70, align 1
  %72 = load i8*, i8** %7, align 8
  %73 = load i32, i32* %6, align 4
  %74 = sext i32 %73 to i64
  %75 = getelementptr inbounds i8, i8* %72, i64 %74
  %76 = load i32, i32* %5, align 4
  %77 = sext i32 %76 to i64
  %78 = sub i64 0, %77
  %79 = getelementptr inbounds i8, i8* %75, i64 %78
  store i8 %71, i8* %79, align 1
  %80 = load i32, i32* %5, align 4
  %81 = load i32, i32* %5, align 4
  %82 = add nsw i32 %80, %81
  %83 = load i32, i32* %3, align 4
  %84 = add nsw i32 %82, %83
  %85 = sub nsw i32 %84, 1
  %86 = load i32, i32* %6, align 4
  %87 = sub nsw i32 %85, %86
  %88 = sext i32 %87 to i64
  %89 = getelementptr inbounds [550 x i8], [550 x i8]* %2, i64 0, i64 %88
  %90 = load i8, i8* %89, align 1
  %91 = load i8*, i8** %8, align 8
  %92 = load i32, i32* %6, align 4
  %93 = sext i32 %92 to i64
  %94 = getelementptr inbounds i8, i8* %91, i64 %93
  %95 = load i32, i32* %5, align 4
  %96 = sext i32 %95 to i64
  %97 = sub i64 0, %96
  %98 = getelementptr inbounds i8, i8* %94, i64 %97
  store i8 %90, i8* %98, align 1
  br label %99

99:                                               ; preds = %67
  %100 = load i32, i32* %6, align 4
  %101 = add nsw i32 %100, 1
  store i32 %101, i32* %6, align 4
  br label %60

102:                                              ; preds = %60
  %103 = load i8*, i8** %7, align 8
  %104 = load i32, i32* %3, align 4
  %105 = sext i32 %104 to i64
  %106 = getelementptr inbounds i8, i8* %103, i64 %105
  store i8 0, i8* %106, align 1
  %107 = load i8*, i8** %8, align 8
  %108 = load i32, i32* %3, align 4
  %109 = sext i32 %108 to i64
  %110 = getelementptr inbounds i8, i8* %107, i64 %109
  store i8 0, i8* %110, align 1
  %111 = load i8*, i8** %7, align 8
  %112 = load i8*, i8** %8, align 8
  %113 = call i32 @strcmp(i8* %111, i8* %112) #6
  %114 = icmp eq i32 %113, 0
  br i1 %114, label %115, label %118

115:                                              ; preds = %102
  %116 = load i8*, i8** %7, align 8
  %117 = call i32 (i8*, ...) @printf(i8* getelementptr inbounds ([4 x i8], [4 x i8]* @.str.1, i64 0, i64 0), i8* %116)
  br label %118

118:                                              ; preds = %115, %102
  br label %119

119:                                              ; preds = %118
  %120 = load i32, i32* %5, align 4
  %121 = add nsw i32 %120, 1
  store i32 %121, i32* %5, align 4
  br label %51

122:                                              ; preds = %51
  %123 = load i8*, i8** %7, align 8
  call void @free(i8* %123) #5
  %124 = load i8*, i8** %8, align 8
  call void @free(i8* %124) #5
  br label %125

125:                                              ; preds = %122
  %126 = load i32, i32* %3, align 4
  %127 = add nsw i32 %126, 1
  store i32 %127, i32* %3, align 4
  br label %35

128:                                              ; preds = %35
  ret i32 0
}

; Function Attrs: argmemonly nounwind willreturn
declare void @llvm.memset.p0i8.i64(i8* nocapture writeonly, i8, i64, i1 immarg) #1

declare dso_local i32 @__isoc99_scanf(i8*, ...) #2

; Function Attrs: nounwind
declare dso_local noalias i8* @malloc(i64) #3

; Function Attrs: nounwind readonly
declare dso_local i32 @strcmp(i8*, i8*) #4

declare dso_local i32 @printf(i8*, ...) #2

; Function Attrs: nounwind
declare dso_local void @free(i8*) #3


!llvm.module.flags = !{!0}
!llvm.ident = !{!1}

!0 = !{i32 1, !"wchar_size", i32 4}
!1 = !{!"clang version 10.0.0-4ubuntu1 "}
